; Function Attrs: nounwind uwtable
define dso_local ptr @zend_get_constant_str(ptr noundef %0, i64 noundef %1) local_unnamed_addr #0 {
  %3 = load ptr, ptr getelementptr inbounds nuw (i8, ptr @executor_globals, i64 472), align 8, !tbaa !17
  %4 = tail call ptr @zend_hash_str_find(ptr noundef %3, ptr noundef %0, i64 noundef %1) #11
  %.not.i.i = icmp eq ptr %4, null
  br i1 %.not.i.i, label %6, label %zend_hash_str_find_ptr.exit.i

zend_hash_str_find_ptr.exit.i:                    ; preds = %2
  %5 = load ptr, ptr %4, align 8, !tbaa !4, !nonnull !49, !noundef !49
  br label %zend_get_constant_str_impl.exit

6:                                                ; preds = %2
  %7 = tail call fastcc ptr @zend_get_halt_offset_constant(ptr noundef %0, i64 noundef %1)
  %.not12.i = icmp eq ptr %7, null
  br i1 %.not12.i, label %8, label %zend_get_constant_str_impl.exit

8:                                                ; preds = %6
  %9 = and i64 %1, -2
  %or.cond.i.i = icmp eq i64 %9, 4
  br i1 %or.cond.i.i, label %10, label %zend_get_constant_str_impl.exit

10:                                               ; preds = %8
  %11 = tail call ptr @_zend_get_special_const(ptr noundef %0, i64 noundef %1)
  br label %zend_get_constant_str_impl.exit

zend_get_constant_str_impl.exit:                  ; preds = %zend_hash_str_find_ptr.exit.i, %6, %8, %10
  %.0.i = phi ptr [ %5, %zend_hash_str_find_ptr.exit.i ], [ %7, %6 ], [ %11, %10 ], [ null, %8 ]
  ret ptr %.0.i
}